ccopy_reg
_reconstructor
p0
(csklearn.ensemble.forest
ExtraTreesClassifier
p1
c__builtin__
object
p2
Ntp3
Rp4
(dp5
S'warm_start'
p6
I00
sS'base_estimator'
p7
g0
(csklearn.tree.tree
ExtraTreeClassifier
p8
g2
Ntp9
Rp10
(dp11
S'presort'
p12
I00
sS'splitter'
p13
S'random'
p14
sS'tree_'
p15
NsS'n_features_'
p16
NsS'n_outputs_'
p17
NsS'n_classes_'
p18
NsS'random_state'
p19
NsS'classes_'
p20
NsS'max_features_'
p21
NsS'min_samples_leaf'
p22
I1
sS'max_features'
p23
S'auto'
p24
sS'min_weight_fraction_leaf'
p25
F0.0
sS'criterion'
p26
S'gini'
p27
sS'max_leaf_nodes'
p28
NsS'min_samples_split'
p29
I2
sS'max_depth'
p30
NsS'class_weight'
p31
NsbsS'estimators_'
p32
(lp33
sS'n_jobs'
p34
I1
sS'verbose'
p35
I0
sg19
NsS'bootstrap'
p36
I00
sS'oob_score'
p37
I00
sg22
I1
sS'n_estimators'
p38
I6
sg23
S'sqrt'
p39
sS'estimator_params'
p40
(S'criterion'
p41
S'max_depth'
p42
S'min_samples_split'
p43
S'min_samples_leaf'
p44
S'min_weight_fraction_leaf'
p45
S'max_features'
p46
S'max_leaf_nodes'
p47
S'random_state'
p48
tp49
sg26
g27
sg25
F0.0
sg28
Nsg29
I2
sg30
Nsg31
(dp50
I0
F0.5
ssb.