(lp0
S'poi'
p1
aS'bonus'
p2
aS'deferred_income'
p3
aS'exercised_stock_options'
p4
aS'expenses'
p5
aS'loan_advances'
p6
aS'long_term_incentive'
p7
aS'other'
p8
aS'restricted_stock'
p9
aS'restricted_stock_deferred'
p10
aS'salary'
p11
aS'total_payments'
p12
aS'total_stock_value'
p13
aS'ratio_to'
p14
aS'ratio_from'
p15
aS'big_shot'
p16
a.